; Function Attrs: null_pointer_is_valid sspstrong uwtable
define internal i32 @dissect_TeletexOrganizationName_PDU(ptr noundef %0, ptr noundef %1, ptr noundef %2, ptr readnone captures(none) %3) #0 {
  %5 = alloca ptr, align 8
  %6 = alloca %struct._asn1_ctx_t, align 8
  call void @llvm.lifetime.start.p0(i64 208, ptr nonnull %6) #5
  call void @asn1_ctx_init(ptr noundef nonnull %6, i32 noundef 0, i1 noundef zeroext true, ptr noundef %1)
  %7 = load i32, ptr @hf_p1_TeletexOrganizationName_PDU, align 4
  call void @llvm.lifetime.start.p0(i64 8, ptr nonnull %5) #5
  store ptr null, ptr %5, align 8
  %8 = call i32 @dissect_ber_constrained_restricted_string(i1 noundef zeroext false, i32 noundef 20, ptr noundef nonnull %6, ptr noundef %2, ptr noundef %0, i32 noundef 0, i32 noundef 1, i32 noundef 64, i32 noundef %7, ptr noundef nonnull %5)
  %9 = load ptr, ptr %5, align 8
  %10 = getelementptr inbounds nuw i8, ptr %6, i64 16
  %11 = load ptr, ptr %10, align 8
  %12 = getelementptr inbounds nuw i8, ptr %11, i64 408
  %13 = load ptr, ptr %12, align 8
  %14 = load i32, ptr @proto_p1, align 4
  %15 = call ptr @p_get_proto_data(ptr noundef %13, ptr noundef %11, i32 noundef %14, i32 noundef 0)
  %.not.i.i = icmp eq ptr %15, null
  br i1 %.not.i.i, label %get_do_address_ctx.exit.i, label %get_do_address_ctx.exit.thread.i

get_do_address_ctx.exit.i:                        ; preds = %4
  %16 = getelementptr inbounds nuw i8, ptr %6, i64 136
  %17 = load ptr, ptr %16, align 8
  %.not.i = icmp eq ptr %17, null
  br i1 %.not.i, label %do_address.exit, label %get_do_address_ctx.exit.thread.i

get_do_address_ctx.exit.thread.i:                 ; preds = %get_do_address_ctx.exit.i, %4
  %.0.i17.i = phi ptr [ %17, %get_do_address_ctx.exit.i ], [ %15, %4 ]
  %18 = load i8, ptr %.0.i17.i, align 8, !range !6, !noundef !7
  %19 = trunc nuw i8 %18 to i1
  br i1 %19, label %20, label %do_address.exit

20:                                               ; preds = %get_do_address_ctx.exit.thread.i
  %21 = getelementptr inbounds nuw i8, ptr %.0.i17.i, i64 24
  %22 = load ptr, ptr %21, align 8
  call void @wmem_strbuf_append(ptr noundef %22, ptr noundef nonnull @.str.1639)
  %.not14.i = icmp eq ptr %9, null
  br i1 %.not14.i, label %do_address.exit, label %23

23:                                               ; preds = %20
  %24 = load ptr, ptr %21, align 8
  %25 = load ptr, ptr %10, align 8
  %26 = getelementptr inbounds nuw i8, ptr %25, i64 408
  %27 = load ptr, ptr %26, align 8
  %28 = call i32 @tvb_captured_length(ptr noundef nonnull %9)
  %29 = call ptr @tvb_format_text(ptr noundef %27, ptr noundef nonnull %9, i32 noundef 0, i32 noundef %28)
  call void @wmem_strbuf_append(ptr noundef %24, ptr noundef %29)
  br label %do_address.exit

do_address.exit:                                  ; preds = %get_do_address_ctx.exit.i, %get_do_address_ctx.exit.thread.i, %20, %23
  call void @llvm.lifetime.end.p0(i64 8, ptr nonnull %5) #5
  call void @llvm.lifetime.end.p0(i64 208, ptr nonnull %6) #5
  ret i32 %8
}